target datalayout = "e-m:e-p270:32:32-p271:32:32-p272:64:64-i64:64-i128:128-f80:128-n8:16:32:64-S128"
target triple = "x86_64-unknown-linux-gnu"

%struct.UText = type { i32, i32, i32, i32, i64, i32, i32, i64, i32, i32, ptr, ptr, ptr, ptr, ptr, ptr, ptr, ptr, i64, i32, i32, i64, i32, i32 }

; Function Attrs: mustprogress nounwind uwtable
define internal noundef signext i8 @_ZL15ucstrTextAccessP5UTextla(ptr noundef %ut, i64 noundef %index, i8 noundef signext %forward) #1 {
entry:
  %ut.addr = alloca ptr, align 8
  %index.addr = alloca i64, align 8
  %forward.addr = alloca i8, align 1
  %str = alloca ptr, align 8
  %scanLimit = alloca i32, align 4
  %chunkLimit = alloca i32, align 4
  %retVal = alloca i8, align 1
  store ptr %ut, ptr %ut.addr, align 8
  store i64 %index, ptr %index.addr, align 8
  store i8 %forward, ptr %forward.addr, align 1
  %0 = load ptr, ptr %ut.addr, align 8
  %context = getelementptr inbounds %struct.UText, ptr %0, i32 0, i32 13
  %1 = load ptr, ptr %context, align 8
  store ptr %1, ptr %str, align 8
  %2 = load i64, ptr %index.addr, align 8
  %cmp = icmp slt i64 %2, 0
  br i1 %cmp, label %if.then, label %if.else

if.then:                                          ; preds = %entry
  store i64 0, ptr %index.addr, align 8
  br label %if.end108

if.else:                                          ; preds = %entry
  %3 = load i64, ptr %index.addr, align 8
  %4 = load ptr, ptr %ut.addr, align 8
  %chunkNativeLimit = getelementptr inbounds %struct.UText, ptr %4, i32 0, i32 4
  %5 = load i64, ptr %chunkNativeLimit, align 8
  %cmp1 = icmp slt i64 %3, %5
  br i1 %cmp1, label %if.then2, label %if.else11

if.then2:                                         ; preds = %if.else
  br label %do.body

do.body:                                          ; preds = %if.then2
  %6 = load ptr, ptr %str, align 8
  %7 = load i64, ptr %index.addr, align 8
  %arrayidx = getelementptr inbounds i16, ptr %6, i64 %7
  %8 = load i16, ptr %arrayidx, align 2
  %conv = zext i16 %8 to i32
  %and = and i32 %conv, -1024
  %cmp3 = icmp eq i32 %and, 56320
  br i1 %cmp3, label %land.lhs.true, label %if.end

land.lhs.true:                                    ; preds = %do.body
  %9 = load i64, ptr %index.addr, align 8
  %cmp4 = icmp sgt i64 %9, 0
  br i1 %cmp4, label %land.lhs.true5, label %if.end

land.lhs.true5:                                   ; preds = %land.lhs.true
  %10 = load ptr, ptr %str, align 8
  %11 = load i64, ptr %index.addr, align 8
  %sub = sub nsw i64 %11, 1
  %arrayidx6 = getelementptr inbounds i16, ptr %10, i64 %sub
  %12 = load i16, ptr %arrayidx6, align 2
  %conv7 = zext i16 %12 to i32
  %and8 = and i32 %conv7, -1024
  %cmp9 = icmp eq i32 %and8, 55296
  br i1 %cmp9, label %if.then10, label %if.end

if.then10:                                        ; preds = %land.lhs.true5
  %13 = load i64, ptr %index.addr, align 8
  %dec = add nsw i64 %13, -1
  store i64 %dec, ptr %index.addr, align 8
  br label %if.end

if.end:                                           ; preds = %if.then10, %land.lhs.true5, %land.lhs.true, %do.body
  br label %do.end

do.end:                                           ; preds = %if.end
  br label %if.end107

if.else11:                                        ; preds = %if.else
  %14 = load ptr, ptr %ut.addr, align 8
  %a = getelementptr inbounds %struct.UText, ptr %14, i32 0, i32 18
  %15 = load i64, ptr %a, align 8
  %cmp12 = icmp sge i64 %15, 0
  br i1 %cmp12, label %if.then13, label %if.else15

if.then13:                                        ; preds = %if.else11
  %16 = load ptr, ptr %ut.addr, align 8
  %a14 = getelementptr inbounds %struct.UText, ptr %16, i32 0, i32 18
  %17 = load i64, ptr %a14, align 8
  store i64 %17, ptr %index.addr, align 8
  br label %if.end106

if.else15:                                        ; preds = %if.else11
  %18 = load i64, ptr %index.addr, align 8
  %conv16 = trunc i64 %18 to i32
  %add = add nsw i32 %conv16, 32
  store i32 %add, ptr %scanLimit, align 4
  %19 = load i64, ptr %index.addr, align 8
  %add17 = add nsw i64 %19, 32
  %cmp18 = icmp sgt i64 %add17, 2147483647
  br i1 %cmp18, label %if.then21, label %lor.lhs.false

lor.lhs.false:                                    ; preds = %if.else15
  %20 = load i64, ptr %index.addr, align 8
  %add19 = add nsw i64 %20, 32
  %cmp20 = icmp slt i64 %add19, 0
  br i1 %cmp20, label %if.then21, label %if.end22

if.then21:                                        ; preds = %lor.lhs.false, %if.else15
  store i32 2147483647, ptr %scanLimit, align 4
  br label %if.end22

if.end22:                                         ; preds = %if.then21, %lor.lhs.false
  %21 = load ptr, ptr %ut.addr, align 8
  %chunkNativeLimit23 = getelementptr inbounds %struct.UText, ptr %21, i32 0, i32 4
  %22 = load i64, ptr %chunkNativeLimit23, align 8
  %conv24 = trunc i64 %22 to i32
  store i32 %conv24, ptr %chunkLimit, align 4
  br label %for.cond

for.cond:                                         ; preds = %for.inc, %if.end22
  %23 = load i32, ptr %chunkLimit, align 4
  %24 = load i32, ptr %scanLimit, align 4
  %cmp25 = icmp slt i32 %23, %24
  br i1 %cmp25, label %for.body, label %for.end

for.body:                                         ; preds = %for.cond
  %25 = load ptr, ptr %str, align 8
  %26 = load i32, ptr %chunkLimit, align 4
  %idxprom = sext i32 %26 to i64
  %arrayidx26 = getelementptr inbounds i16, ptr %25, i64 %idxprom
  %27 = load i16, ptr %arrayidx26, align 2
  %conv27 = zext i16 %27 to i32
  %cmp28 = icmp eq i32 %conv27, 0
  br i1 %cmp28, label %if.then29, label %if.end58

if.then29:                                        ; preds = %for.body
  %28 = load i32, ptr %chunkLimit, align 4
  %conv30 = sext i32 %28 to i64
  %29 = load ptr, ptr %ut.addr, align 8
  %a31 = getelementptr inbounds %struct.UText, ptr %29, i32 0, i32 18
  store i64 %conv30, ptr %a31, align 8
  %30 = load i32, ptr %chunkLimit, align 4
  %31 = load ptr, ptr %ut.addr, align 8
  %chunkLength = getelementptr inbounds %struct.UText, ptr %31, i32 0, i32 9
  store i32 %30, ptr %chunkLength, align 4
  %32 = load i32, ptr %chunkLimit, align 4
  %33 = load ptr, ptr %ut.addr, align 8
  %nativeIndexingLimit = getelementptr inbounds %struct.UText, ptr %33, i32 0, i32 6
  store i32 %32, ptr %nativeIndexingLimit, align 4
  %34 = load i64, ptr %index.addr, align 8
  %35 = load i32, ptr %chunkLimit, align 4
  %conv32 = sext i32 %35 to i64
  %cmp33 = icmp sge i64 %34, %conv32
  br i1 %cmp33, label %if.then34, label %if.else36

if.then34:                                        ; preds = %if.then29
  %36 = load i32, ptr %chunkLimit, align 4
  %conv35 = sext i32 %36 to i64
  store i64 %conv35, ptr %index.addr, align 8
  br label %if.end54

if.else36:                                        ; preds = %if.then29
  br label %do.body37

do.body37:                                        ; preds = %if.else36
  %37 = load ptr, ptr %str, align 8
  %38 = load i64, ptr %index.addr, align 8
  %arrayidx38 = getelementptr inbounds i16, ptr %37, i64 %38
  %39 = load i16, ptr %arrayidx38, align 2
  %conv39 = zext i16 %39 to i32
  %and40 = and i32 %conv39, -1024
  %cmp41 = icmp eq i32 %and40, 56320
  br i1 %cmp41, label %land.lhs.true42, label %if.end52

land.lhs.true42:                                  ; preds = %do.body37
  %40 = load i64, ptr %index.addr, align 8
  %cmp43 = icmp sgt i64 %40, 0
  br i1 %cmp43, label %land.lhs.true44, label %if.end52

land.lhs.true44:                                  ; preds = %land.lhs.true42
  %41 = load ptr, ptr %str, align 8
  %42 = load i64, ptr %index.addr, align 8
  %sub45 = sub nsw i64 %42, 1
  %arrayidx46 = getelementptr inbounds i16, ptr %41, i64 %sub45
  %43 = load i16, ptr %arrayidx46, align 2
  %conv47 = zext i16 %43 to i32
  %and48 = and i32 %conv47, -1024
  %cmp49 = icmp eq i32 %and48, 55296
  br i1 %cmp49, label %if.then50, label %if.end52

if.then50:                                        ; preds = %land.lhs.true44
  %44 = load i64, ptr %index.addr, align 8
  %dec51 = add nsw i64 %44, -1
  store i64 %dec51, ptr %index.addr, align 8
  br label %if.end52

if.end52:                                         ; preds = %if.then50, %land.lhs.true44, %land.lhs.true42, %do.body37
  br label %do.end53

do.end53:                                         ; preds = %if.end52
  br label %if.end54

if.end54:                                         ; preds = %do.end53, %if.then34
  %45 = load i32, ptr %chunkLimit, align 4
  %conv55 = sext i32 %45 to i64
  %46 = load ptr, ptr %ut.addr, align 8
  %chunkNativeLimit56 = getelementptr inbounds %struct.UText, ptr %46, i32 0, i32 4
  store i64 %conv55, ptr %chunkNativeLimit56, align 8
  %47 = load ptr, ptr %ut.addr, align 8
  %providerProperties = getelementptr inbounds %struct.UText, ptr %47, i32 0, i32 2
  %48 = load i32, ptr %providerProperties, align 8
  %and57 = and i32 %48, -3
  store i32 %and57, ptr %providerProperties, align 8
  br label %breakout

if.end58:                                         ; preds = %for.body
  br label %for.inc

for.inc:                                          ; preds = %if.end58
  %49 = load i32, ptr %chunkLimit, align 4
  %inc = add nsw i32 %49, 1
  store i32 %inc, ptr %chunkLimit, align 4
  br label %for.cond, !llvm.loop !22

for.end:                                          ; preds = %for.cond
  br label %do.body59

do.body59:                                        ; preds = %for.end
  %50 = load ptr, ptr %str, align 8
  %51 = load i64, ptr %index.addr, align 8
  %arrayidx60 = getelementptr inbounds i16, ptr %50, i64 %51
  %52 = load i16, ptr %arrayidx60, align 2
  %conv61 = zext i16 %52 to i32
  %and62 = and i32 %conv61, -1024
  %cmp63 = icmp eq i32 %and62, 56320
  br i1 %cmp63, label %land.lhs.true64, label %if.end74

land.lhs.true64:                                  ; preds = %do.body59
  %53 = load i64, ptr %index.addr, align 8
  %cmp65 = icmp sgt i64 %53, 0
  br i1 %cmp65, label %land.lhs.true66, label %if.end74

land.lhs.true66:                                  ; preds = %land.lhs.true64
  %54 = load ptr, ptr %str, align 8
  %55 = load i64, ptr %index.addr, align 8
  %sub67 = sub nsw i64 %55, 1
  %arrayidx68 = getelementptr inbounds i16, ptr %54, i64 %sub67
  %56 = load i16, ptr %arrayidx68, align 2
  %conv69 = zext i16 %56 to i32
  %and70 = and i32 %conv69, -1024
  %cmp71 = icmp eq i32 %and70, 55296
  br i1 %cmp71, label %if.then72, label %if.end74

if.then72:                                        ; preds = %land.lhs.true66
  %57 = load i64, ptr %index.addr, align 8
  %dec73 = add nsw i64 %57, -1
  store i64 %dec73, ptr %index.addr, align 8
  br label %if.end74

if.end74:                                         ; preds = %if.then72, %land.lhs.true66, %land.lhs.true64, %do.body59
  br label %do.end75

do.end75:                                         ; preds = %if.end74
  %58 = load i32, ptr %chunkLimit, align 4
  %cmp76 = icmp eq i32 %58, 2147483647
  br i1 %cmp76, label %if.then77, label %if.else91

if.then77:                                        ; preds = %do.end75
  %59 = load i32, ptr %chunkLimit, align 4
  %conv78 = sext i32 %59 to i64
  %60 = load ptr, ptr %ut.addr, align 8
  %a79 = getelementptr inbounds %struct.UText, ptr %60, i32 0, i32 18
  store i64 %conv78, ptr %a79, align 8
  %61 = load i32, ptr %chunkLimit, align 4
  %62 = load ptr, ptr %ut.addr, align 8
  %chunkLength80 = getelementptr inbounds %struct.UText, ptr %62, i32 0, i32 9
  store i32 %61, ptr %chunkLength80, align 4
  %63 = load i32, ptr %chunkLimit, align 4
  %64 = load ptr, ptr %ut.addr, align 8
  %nativeIndexingLimit81 = getelementptr inbounds %struct.UText, ptr %64, i32 0, i32 6
  store i32 %63, ptr %nativeIndexingLimit81, align 4
  %65 = load i64, ptr %index.addr, align 8
  %66 = load i32, ptr %chunkLimit, align 4
  %conv82 = sext i32 %66 to i64
  %cmp83 = icmp sgt i64 %65, %conv82
  br i1 %cmp83, label %if.then84, label %if.end86

if.then84:                                        ; preds = %if.then77
  %67 = load i32, ptr %chunkLimit, align 4
  %conv85 = sext i32 %67 to i64
  store i64 %conv85, ptr %index.addr, align 8
  br label %if.end86

if.end86:                                         ; preds = %if.then84, %if.then77
  %68 = load i32, ptr %chunkLimit, align 4
  %conv87 = sext i32 %68 to i64
  %69 = load ptr, ptr %ut.addr, align 8
  %chunkNativeLimit88 = getelementptr inbounds %struct.UText, ptr %69, i32 0, i32 4
  store i64 %conv87, ptr %chunkNativeLimit88, align 8
  %70 = load ptr, ptr %ut.addr, align 8
  %providerProperties89 = getelementptr inbounds %struct.UText, ptr %70, i32 0, i32 2
  %71 = load i32, ptr %providerProperties89, align 8
  %and90 = and i32 %71, -3
  store i32 %and90, ptr %providerProperties89, align 8
  br label %if.end105

if.else91:                                        ; preds = %do.end75
  %72 = load ptr, ptr %str, align 8
  %73 = load i32, ptr %chunkLimit, align 4
  %sub92 = sub nsw i32 %73, 1
  %idxprom93 = sext i32 %sub92 to i64
  %arrayidx94 = getelementptr inbounds i16, ptr %72, i64 %idxprom93
  %74 = load i16, ptr %arrayidx94, align 2
  %conv95 = zext i16 %74 to i32
  %and96 = and i32 %conv95, -1024
  %cmp97 = icmp eq i32 %and96, 55296
  br i1 %cmp97, label %if.then98, label %if.end100

if.then98:                                        ; preds = %if.else91
  %75 = load i32, ptr %chunkLimit, align 4
  %dec99 = add nsw i32 %75, -1
  store i32 %dec99, ptr %chunkLimit, align 4
  br label %if.end100

if.end100:                                        ; preds = %if.then98, %if.else91
  %76 = load i32, ptr %chunkLimit, align 4
  %conv101 = sext i32 %76 to i64
  %77 = load ptr, ptr %ut.addr, align 8
  %chunkNativeLimit102 = getelementptr inbounds %struct.UText, ptr %77, i32 0, i32 4
  store i64 %conv101, ptr %chunkNativeLimit102, align 8
  %78 = load i32, ptr %chunkLimit, align 4
  %79 = load ptr, ptr %ut.addr, align 8
  %nativeIndexingLimit103 = getelementptr inbounds %struct.UText, ptr %79, i32 0, i32 6
  store i32 %78, ptr %nativeIndexingLimit103, align 4
  %80 = load i32, ptr %chunkLimit, align 4
  %81 = load ptr, ptr %ut.addr, align 8
  %chunkLength104 = getelementptr inbounds %struct.UText, ptr %81, i32 0, i32 9
  store i32 %80, ptr %chunkLength104, align 4
  br label %if.end105

if.end105:                                        ; preds = %if.end100, %if.end86
  br label %if.end106

if.end106:                                        ; preds = %if.end105, %if.then13
  br label %if.end107

if.end107:                                        ; preds = %if.end106, %do.end
  br label %if.end108

if.end108:                                        ; preds = %if.end107, %if.then
  br label %breakout

breakout:                                         ; preds = %if.end108, %if.end54
  %82 = load i64, ptr %index.addr, align 8
  %conv109 = trunc i64 %82 to i32
  %83 = load ptr, ptr %ut.addr, align 8
  %chunkOffset = getelementptr inbounds %struct.UText, ptr %83, i32 0, i32 8
  store i32 %conv109, ptr %chunkOffset, align 8
  %84 = load i8, ptr %forward.addr, align 1
  %tobool = icmp ne i8 %84, 0
  br i1 %tobool, label %land.lhs.true110, label %lor.rhs

land.lhs.true110:                                 ; preds = %breakout
  %85 = load i64, ptr %index.addr, align 8
  %86 = load ptr, ptr %ut.addr, align 8
  %chunkNativeLimit111 = getelementptr inbounds %struct.UText, ptr %86, i32 0, i32 4
  %87 = load i64, ptr %chunkNativeLimit111, align 8
  %cmp112 = icmp slt i64 %85, %87
  br i1 %cmp112, label %lor.end, label %lor.rhs

lor.rhs:                                          ; preds = %land.lhs.true110, %breakout
  %88 = load i8, ptr %forward.addr, align 1
  %tobool113 = icmp ne i8 %88, 0
  br i1 %tobool113, label %land.end, label %land.rhs

land.rhs:                                         ; preds = %lor.rhs
  %89 = load i64, ptr %index.addr, align 8
  %cmp114 = icmp sgt i64 %89, 0
  br label %land.end

land.end:                                         ; preds = %land.rhs, %lor.rhs
  %90 = phi i1 [ false, %lor.rhs ], [ %cmp114, %land.rhs ]
  br label %lor.end

lor.end:                                          ; preds = %land.end, %land.lhs.true110
  %91 = phi i1 [ true, %land.lhs.true110 ], [ %90, %land.end ]
  %conv115 = zext i1 %91 to i8
  store i8 %conv115, ptr %retVal, align 1
  %92 = load i8, ptr %retVal, align 1
  ret i8 %92
}