; Function Attrs: mustprogress nofree norecurse nosync nounwind memory(read, argmem: readwrite, inaccessiblemem: none) uwtable
define internal noundef signext i8 @_ZL15ucstrTextAccessP5UTextla(ptr nocapture noundef %ut, i64 noundef %index, i8 noundef signext %forward) #7 {
entry:
  %context = getelementptr inbounds i8, ptr %ut, i64 72
  %0 = load ptr, ptr %context, align 8
  %cmp = icmp slt i64 %index, 0
  br i1 %cmp, label %breakout, label %if.else

if.else:                                          ; preds = %entry
  %chunkNativeLimit = getelementptr inbounds i8, ptr %ut, i64 16
  %1 = load i64, ptr %chunkNativeLimit, align 8
  %cmp1 = icmp sgt i64 %1, %index
  br i1 %cmp1, label %do.body, label %if.else11

do.body:                                          ; preds = %if.else
  %arrayidx = getelementptr inbounds i16, ptr %0, i64 %index
  %2 = load i16, ptr %arrayidx, align 2
  %3 = and i16 %2, -1024
  %cmp3 = icmp eq i16 %3, -9216
  %cmp4 = icmp ne i64 %index, 0
  %or.cond = and i1 %cmp4, %cmp3
  br i1 %or.cond, label %land.lhs.true5, label %breakout

land.lhs.true5:                                   ; preds = %do.body
  %arrayidx6 = getelementptr i8, ptr %arrayidx, i64 -2
  %4 = load i16, ptr %arrayidx6, align 2
  %5 = and i16 %4, -1024
  %cmp9 = icmp eq i16 %5, -10240
  %dec = sext i1 %cmp9 to i64
  %spec.select = add nsw i64 %dec, %index
  br label %breakout

if.else11:                                        ; preds = %if.else
  %a = getelementptr inbounds i8, ptr %ut, i64 112
  %6 = load i64, ptr %a, align 8
  %cmp12 = icmp sgt i64 %6, -1
  br i1 %cmp12, label %breakout, label %if.else15

if.else15:                                        ; preds = %if.else11
  %cmp18 = icmp ugt i64 %index, 2147483615
  %conv16 = trunc i64 %index to i32
  %add = add nsw i32 %conv16, 32
  %scanLimit.0 = select i1 %cmp18, i32 2147483647, i32 %add
  %conv24 = trunc i64 %1 to i32
  %cmp2576 = icmp sgt i32 %scanLimit.0, %conv24
  br i1 %cmp2576, label %for.body.preheader, label %do.body59

for.body.preheader:                               ; preds = %if.else15
  %sext = shl i64 %1, 32
  %7 = ashr exact i64 %sext, 32
  %wide.trip.count = sext i32 %scanLimit.0 to i64
  br label %for.body

for.body:                                         ; preds = %for.body.preheader, %for.inc
  %indvars.iv = phi i64 [ %7, %for.body.preheader ], [ %indvars.iv.next, %for.inc ]
  %arrayidx26 = getelementptr inbounds i16, ptr %0, i64 %indvars.iv
  %8 = load i16, ptr %arrayidx26, align 2
  %cmp28 = icmp eq i16 %8, 0
  br i1 %cmp28, label %if.then29, label %for.inc

if.then29:                                        ; preds = %for.body
  %9 = trunc i64 %indvars.iv to i32
  store i64 %indvars.iv, ptr %a, align 8
  %chunkLength = getelementptr inbounds i8, ptr %ut, i64 44
  store i32 %9, ptr %chunkLength, align 4
  %nativeIndexingLimit = getelementptr inbounds i8, ptr %ut, i64 28
  store i32 %9, ptr %nativeIndexingLimit, align 4
  %cmp33.not = icmp sgt i64 %indvars.iv, %index
  br i1 %cmp33.not, label %do.body37, label %if.end54

do.body37:                                        ; preds = %if.then29
  %arrayidx38 = getelementptr inbounds i16, ptr %0, i64 %index
  %10 = load i16, ptr %arrayidx38, align 2
  %11 = and i16 %10, -1024
  %cmp41 = icmp eq i16 %11, -9216
  %cmp43 = icmp ne i64 %index, 0
  %or.cond1 = and i1 %cmp43, %cmp41
  br i1 %or.cond1, label %land.lhs.true44, label %if.end54

land.lhs.true44:                                  ; preds = %do.body37
  %arrayidx46 = getelementptr i8, ptr %arrayidx38, i64 -2
  %12 = load i16, ptr %arrayidx46, align 2
  %13 = and i16 %12, -1024
  %cmp49 = icmp eq i16 %13, -10240
  %dec51 = sext i1 %cmp49 to i64
  %spec.select71 = add nsw i64 %dec51, %index
  br label %if.end54

if.end54:                                         ; preds = %land.lhs.true44, %if.then29, %do.body37
  %index.addr.0 = phi i64 [ %index, %do.body37 ], [ %indvars.iv, %if.then29 ], [ %spec.select71, %land.lhs.true44 ]
  store i64 %indvars.iv, ptr %chunkNativeLimit, align 8
  %providerProperties = getelementptr inbounds i8, ptr %ut, i64 8
  %14 = load i32, ptr %providerProperties, align 8
  %and57 = and i32 %14, -3
  store i32 %and57, ptr %providerProperties, align 8
  br label %breakout

for.inc:                                          ; preds = %for.body
  %indvars.iv.next = add nsw i64 %indvars.iv, 1
  %exitcond.not = icmp eq i64 %indvars.iv.next, %wide.trip.count
  br i1 %exitcond.not, label %do.body59, label %for.body, !llvm.loop !21

do.body59:                                        ; preds = %for.inc, %if.else15
  %chunkLimit.0.lcssa = phi i32 [ %conv24, %if.else15 ], [ %scanLimit.0, %for.inc ]
  %arrayidx60 = getelementptr inbounds i16, ptr %0, i64 %index
  %15 = load i16, ptr %arrayidx60, align 2
  %16 = and i16 %15, -1024
  %cmp63 = icmp eq i16 %16, -9216
  %cmp65 = icmp ne i64 %index, 0
  %or.cond2 = and i1 %cmp65, %cmp63
  br i1 %or.cond2, label %land.lhs.true66, label %do.end75

land.lhs.true66:                                  ; preds = %do.body59
  %arrayidx68 = getelementptr i8, ptr %arrayidx60, i64 -2
  %17 = load i16, ptr %arrayidx68, align 2
  %18 = and i16 %17, -1024
  %cmp71 = icmp eq i16 %18, -10240
  %dec73 = sext i1 %cmp71 to i64
  %spec.select72 = add nsw i64 %dec73, %index
  br label %do.end75

do.end75:                                         ; preds = %land.lhs.true66, %do.body59
  %index.addr.1 = phi i64 [ %index, %do.body59 ], [ %spec.select72, %land.lhs.true66 ]
  %cmp76 = icmp eq i32 %chunkLimit.0.lcssa, 2147483647
  br i1 %cmp76, label %if.then77, label %if.else91

if.then77:                                        ; preds = %do.end75
  store i64 2147483647, ptr %a, align 8
  %chunkLength80 = getelementptr inbounds i8, ptr %ut, i64 44
  store i32 2147483647, ptr %chunkLength80, align 4
  %nativeIndexingLimit81 = getelementptr inbounds i8, ptr %ut, i64 28
  store i32 2147483647, ptr %nativeIndexingLimit81, align 4
  %spec.select73 = tail call i64 @llvm.smin.i64(i64 %index.addr.1, i64 2147483647)
  store i64 2147483647, ptr %chunkNativeLimit, align 8
  %providerProperties89 = getelementptr inbounds i8, ptr %ut, i64 8
  %19 = load i32, ptr %providerProperties89, align 8
  %and90 = and i32 %19, -3
  store i32 %and90, ptr %providerProperties89, align 8
  br label %breakout

if.else91:                                        ; preds = %do.end75
  %20 = sext i32 %chunkLimit.0.lcssa to i64
  %21 = getelementptr i16, ptr %0, i64 %20
  %arrayidx94 = getelementptr i8, ptr %21, i64 -2
  %22 = load i16, ptr %arrayidx94, align 2
  %23 = and i16 %22, -1024
  %cmp97 = icmp eq i16 %23, -10240
  %dec99 = sext i1 %cmp97 to i32
  %spec.select74 = add nsw i32 %chunkLimit.0.lcssa, %dec99
  %conv101 = sext i32 %spec.select74 to i64
  store i64 %conv101, ptr %chunkNativeLimit, align 8
  %nativeIndexingLimit103 = getelementptr inbounds i8, ptr %ut, i64 28
  store i32 %spec.select74, ptr %nativeIndexingLimit103, align 4
  %chunkLength104 = getelementptr inbounds i8, ptr %ut, i64 44
  store i32 %spec.select74, ptr %chunkLength104, align 4
  br label %breakout

breakout:                                         ; preds = %land.lhs.true5, %if.else11, %entry, %if.else91, %if.then77, %do.body, %if.end54
  %index.addr.3 = phi i64 [ %index, %do.body ], [ %index.addr.0, %if.end54 ], [ %spec.select73, %if.then77 ], [ %index.addr.1, %if.else91 ], [ 0, %entry ], [ %spec.select, %land.lhs.true5 ], [ %6, %if.else11 ]
  %conv109 = trunc i64 %index.addr.3 to i32
  %chunkOffset = getelementptr inbounds i8, ptr %ut, i64 40
  store i32 %conv109, ptr %chunkOffset, align 8
  %tobool.not = icmp eq i8 %forward, 0
  br i1 %tobool.not, label %lor.rhs, label %land.lhs.true110

land.lhs.true110:                                 ; preds = %breakout
  %chunkNativeLimit111 = getelementptr inbounds i8, ptr %ut, i64 16
  %24 = load i64, ptr %chunkNativeLimit111, align 8
  %cmp112 = icmp slt i64 %index.addr.3, %24
  br i1 %cmp112, label %lor.end, label %lor.rhs

lor.rhs:                                          ; preds = %land.lhs.true110, %breakout
  %cmp114 = icmp sgt i64 %index.addr.3, 0
  %25 = select i1 %tobool.not, i1 %cmp114, i1 false
  %26 = zext i1 %25 to i8
  br label %lor.end

lor.end:                                          ; preds = %lor.rhs, %land.lhs.true110
  %conv115 = phi i8 [ 1, %land.lhs.true110 ], [ %26, %lor.rhs ]
  ret i8 %conv115
}